target datalayout = "e-m:e-p270:32:32-p271:32:32-p272:64:64-i64:64-i128:128-f80:128-n8:16:32:64-S128"
target triple = "x86_64-pc-linux-gnu"

%struct.ec_key_method_st = type { ptr, i32, ptr, ptr, ptr, ptr, ptr, ptr, ptr, ptr, ptr, ptr, ptr, ptr, ptr }

; Function Attrs: nounwind uwtable
define void @EC_KEY_METHOD_get_init(ptr noundef %0, ptr noundef %1, ptr noundef %2, ptr noundef %3, ptr noundef %4, ptr noundef %5, ptr noundef %6) #0 {
  %8 = alloca ptr, align 8
  %9 = alloca ptr, align 8
  %10 = alloca ptr, align 8
  %11 = alloca ptr, align 8
  %12 = alloca ptr, align 8
  %13 = alloca ptr, align 8
  %14 = alloca ptr, align 8
  store ptr %0, ptr %8, align 8, !tbaa !3
  store ptr %1, ptr %9, align 8, !tbaa !25
  store ptr %2, ptr %10, align 8, !tbaa !25
  store ptr %3, ptr %11, align 8, !tbaa !25
  store ptr %4, ptr %12, align 8, !tbaa !25
  store ptr %5, ptr %13, align 8, !tbaa !25
  store ptr %6, ptr %14, align 8, !tbaa !25
  %15 = load ptr, ptr %9, align 8, !tbaa !25
  %16 = icmp ne ptr %15, null
  br i1 %16, label %17, label %22

17:                                               ; preds = %7
  %18 = load ptr, ptr %8, align 8, !tbaa !3
  %19 = getelementptr inbounds nuw %struct.ec_key_method_st, ptr %18, i32 0, i32 2
  %20 = load ptr, ptr %19, align 8, !tbaa !27
  %21 = load ptr, ptr %9, align 8, !tbaa !25
  store ptr %20, ptr %21, align 8, !tbaa !25
  br label %22

22:                                               ; preds = %17, %7
  %23 = load ptr, ptr %10, align 8, !tbaa !25
  %24 = icmp ne ptr %23, null
  br i1 %24, label %25, label %30

25:                                               ; preds = %22
  %26 = load ptr, ptr %8, align 8, !tbaa !3
  %27 = getelementptr inbounds nuw %struct.ec_key_method_st, ptr %26, i32 0, i32 3
  %28 = load ptr, ptr %27, align 8, !tbaa !23
  %29 = load ptr, ptr %10, align 8, !tbaa !25
  store ptr %28, ptr %29, align 8, !tbaa !25
  br label %30

30:                                               ; preds = %25, %22
  %31 = load ptr, ptr %11, align 8, !tbaa !25
  %32 = icmp ne ptr %31, null
  br i1 %32, label %33, label %38

33:                                               ; preds = %30
  %34 = load ptr, ptr %8, align 8, !tbaa !3
  %35 = getelementptr inbounds nuw %struct.ec_key_method_st, ptr %34, i32 0, i32 4
  %36 = load ptr, ptr %35, align 8, !tbaa !42
  %37 = load ptr, ptr %11, align 8, !tbaa !25
  store ptr %36, ptr %37, align 8, !tbaa !25
  br label %38

38:                                               ; preds = %33, %30
  %39 = load ptr, ptr %12, align 8, !tbaa !25
  %40 = icmp ne ptr %39, null
  br i1 %40, label %41, label %46

41:                                               ; preds = %38
  %42 = load ptr, ptr %8, align 8, !tbaa !3
  %43 = getelementptr inbounds nuw %struct.ec_key_method_st, ptr %42, i32 0, i32 5
  %44 = load ptr, ptr %43, align 8, !tbaa !43
  %45 = load ptr, ptr %12, align 8, !tbaa !25
  store ptr %44, ptr %45, align 8, !tbaa !25
  br label %46

46:                                               ; preds = %41, %38
  %47 = load ptr, ptr %13, align 8, !tbaa !25
  %48 = icmp ne ptr %47, null
  br i1 %48, label %49, label %54

49:                                               ; preds = %46
  %50 = load ptr, ptr %8, align 8, !tbaa !3
  %51 = getelementptr inbounds nuw %struct.ec_key_method_st, ptr %50, i32 0, i32 6
  %52 = load ptr, ptr %51, align 8, !tbaa !44
  %53 = load ptr, ptr %13, align 8, !tbaa !25
  store ptr %52, ptr %53, align 8, !tbaa !25
  br label %54

54:                                               ; preds = %49, %46
  %55 = load ptr, ptr %14, align 8, !tbaa !25
  %56 = icmp ne ptr %55, null
  br i1 %56, label %57, label %62

57:                                               ; preds = %54
  %58 = load ptr, ptr %8, align 8, !tbaa !3
  %59 = getelementptr inbounds nuw %struct.ec_key_method_st, ptr %58, i32 0, i32 7
  %60 = load ptr, ptr %59, align 8, !tbaa !45
  %61 = load ptr, ptr %14, align 8, !tbaa !25
  store ptr %60, ptr %61, align 8, !tbaa !25
  br label %62

62:                                               ; preds = %57, %54
  ret void
}