; Function Attrs: mustprogress nofree norecurse nosync nounwind willreturn memory(argmem: readwrite) uwtable
define void @EC_KEY_METHOD_get_init(ptr noundef readonly captures(none) %0, ptr noundef writeonly captures(address_is_null) %1, ptr noundef writeonly captures(address_is_null) %2, ptr noundef writeonly captures(address_is_null) %3, ptr noundef writeonly captures(address_is_null) %4, ptr noundef writeonly captures(address_is_null) %5, ptr noundef writeonly captures(address_is_null) %6) local_unnamed_addr #9 {
  %.not = icmp eq ptr %1, null
  br i1 %.not, label %11, label %8

8:                                                ; preds = %7
  %9 = getelementptr inbounds nuw i8, ptr %0, i64 16
  %10 = load ptr, ptr %9, align 8, !tbaa !24
  store ptr %10, ptr %1, align 8, !tbaa !35
  br label %11

11:                                               ; preds = %8, %7
  %.not23 = icmp eq ptr %2, null
  br i1 %.not23, label %15, label %12

12:                                               ; preds = %11
  %13 = getelementptr inbounds nuw i8, ptr %0, i64 24
  %14 = load ptr, ptr %13, align 8, !tbaa !21
  store ptr %14, ptr %2, align 8, !tbaa !35
  br label %15

15:                                               ; preds = %12, %11
  %.not24 = icmp eq ptr %3, null
  br i1 %.not24, label %19, label %16

16:                                               ; preds = %15
  %17 = getelementptr inbounds nuw i8, ptr %0, i64 32
  %18 = load ptr, ptr %17, align 8, !tbaa !37
  store ptr %18, ptr %3, align 8, !tbaa !35
  br label %19

19:                                               ; preds = %16, %15
  %.not25 = icmp eq ptr %4, null
  br i1 %.not25, label %23, label %20

20:                                               ; preds = %19
  %21 = getelementptr inbounds nuw i8, ptr %0, i64 40
  %22 = load ptr, ptr %21, align 8, !tbaa !38
  store ptr %22, ptr %4, align 8, !tbaa !35
  br label %23

23:                                               ; preds = %20, %19
  %.not26 = icmp eq ptr %5, null
  br i1 %.not26, label %27, label %24

24:                                               ; preds = %23
  %25 = getelementptr inbounds nuw i8, ptr %0, i64 48
  %26 = load ptr, ptr %25, align 8, !tbaa !39
  store ptr %26, ptr %5, align 8, !tbaa !35
  br label %27

27:                                               ; preds = %24, %23
  %.not27 = icmp eq ptr %6, null
  br i1 %.not27, label %31, label %28

28:                                               ; preds = %27
  %29 = getelementptr inbounds nuw i8, ptr %0, i64 56
  %30 = load ptr, ptr %29, align 8, !tbaa !40
  store ptr %30, ptr %6, align 8, !tbaa !35
  br label %31

31:                                               ; preds = %28, %27
  ret void
}